(dp0
S'std'
p1
cnumpy.core.multiarray
_reconstruct
p2
(cnumpy
ndarray
p3
(I0
tp4
S'b'
p5
tp6
Rp7
(I1
(I2
tp8
cnumpy
dtype
p9
(S'f8'
p10
I0
I1
tp11
Rp12
(I3
S'<'
p13
NNNI-1
I-1
I0
tp14
bI00
S'\x8aW\x93\xf6\x9e\x91\x88@\xa0b~\xcdI\x17\xe8?'
p15
tp16
bsS'mean'
p17
g2
(g3
(I0
tp18
g5
tp19
Rp20
(I1
(I2
tp21
g12
I00
S'br\x051\xb9B\x9f@\x051\xb9\x82\x98\\\t@'
p22
tp23
bs.